; Function Attrs: mustprogress nounwind uwtable
define internal fastcc void @"_ZSt21__inplace_stable_sortIPPKN4llvm9symbolize12MarkupFilter4MMapEN9__gnu_cxx5__ops15_Iter_comp_iterIZNS2_20endAnyModuleInfoLineEvE3$_0EEEvT_SC_T0_"(ptr noundef %0, ptr noundef %1) unnamed_addr #0 {
  %3 = ptrtoint ptr %1 to i64
  %4 = ptrtoint ptr %0 to i64
  %5 = sub i64 %3, %4
  %6 = ashr exact i64 %5, 3
  %7 = icmp slt i64 %6, 15
  br i1 %7, label %8, label %21

8:                                                ; preds = %2
  %9 = icmp eq ptr %0, %1
  %.017.i = getelementptr inbounds nuw i8, ptr %0, i64 8
  %.not18.i = icmp eq ptr %.017.i, %1
  %or.cond = select i1 %9, i1 true, i1 %.not18.i
  br i1 %or.cond, label %common.ret25, label %.lr.ph.i

.lr.ph.i:                                         ; preds = %8, %"_ZSt25__unguarded_linear_insertIPPKN4llvm9symbolize12MarkupFilter4MMapEN9__gnu_cxx5__ops14_Val_comp_iterIZNS2_20endAnyModuleInfoLineEvE3$_0EEEvT_T0_.exit.i"
  %.020.i = phi ptr [ %.0.i, %"_ZSt25__unguarded_linear_insertIPPKN4llvm9symbolize12MarkupFilter4MMapEN9__gnu_cxx5__ops14_Val_comp_iterIZNS2_20endAnyModuleInfoLineEvE3$_0EEEvT_T0_.exit.i" ], [ %.017.i, %8 ]
  %.pn19.i = phi ptr [ %.020.i, %"_ZSt25__unguarded_linear_insertIPPKN4llvm9symbolize12MarkupFilter4MMapEN9__gnu_cxx5__ops14_Val_comp_iterIZNS2_20endAnyModuleInfoLineEvE3$_0EEEvT_T0_.exit.i" ], [ %0, %8 ]
  %.0.val.i = load ptr, ptr %.020.i, align 8
  %.val.i = load ptr, ptr %0, align 8
  %.0.val.val.i = load i64, ptr %.0.val.i, align 8
  %.val.val.i = load i64, ptr %.val.i, align 8
  %10 = icmp ult i64 %.0.val.val.i, %.val.val.i
  br i1 %10, label %11, label %18

11:                                               ; preds = %.lr.ph.i
  %12 = getelementptr inbounds nuw i8, ptr %.pn19.i, i64 16
  %13 = ptrtoint ptr %.020.i to i64
  %14 = sub i64 %13, %4
  %15 = ashr exact i64 %14, 3
  %16 = sub nsw i64 0, %15
  %17 = getelementptr inbounds ptr, ptr %12, i64 %16
  tail call void @llvm.memmove.p0.p0.i64(ptr noundef nonnull align 8 dereferenceable(1) %17, ptr noundef nonnull align 8 dereferenceable(1) %0, i64 %14, i1 false)
  br label %"_ZSt25__unguarded_linear_insertIPPKN4llvm9symbolize12MarkupFilter4MMapEN9__gnu_cxx5__ops14_Val_comp_iterIZNS2_20endAnyModuleInfoLineEvE3$_0EEEvT_T0_.exit.i"

18:                                               ; preds = %.lr.ph.i
  %.0.val11.i.i = load ptr, ptr %.pn19.i, align 8
  %.0.val.val13.i.i = load i64, ptr %.0.val11.i.i, align 8
  %19 = icmp ult i64 %.0.val.val.i, %.0.val.val13.i.i
  br i1 %19, label %.lr.ph.i.i, label %"_ZSt25__unguarded_linear_insertIPPKN4llvm9symbolize12MarkupFilter4MMapEN9__gnu_cxx5__ops14_Val_comp_iterIZNS2_20endAnyModuleInfoLineEvE3$_0EEEvT_T0_.exit.i"

.lr.ph.i.i:                                       ; preds = %18, %.lr.ph.i.i
  %.0.val16.i.i = phi ptr [ %.0.val.i.i, %.lr.ph.i.i ], [ %.0.val11.i.i, %18 ]
  %.015.i.i = phi ptr [ %.0.i.i, %.lr.ph.i.i ], [ %.pn19.i, %18 ]
  %.0914.i.i = phi ptr [ %.015.i.i, %.lr.ph.i.i ], [ %.020.i, %18 ]
  store ptr %.0.val16.i.i, ptr %.0914.i.i, align 8
  %.0.i.i = getelementptr inbounds i8, ptr %.015.i.i, i64 -8
  %.0.val.i.i = load ptr, ptr %.0.i.i, align 8
  %.val.val.i.i = load i64, ptr %.0.val.i, align 8
  %.0.val.val.i.i = load i64, ptr %.0.val.i.i, align 8
  %20 = icmp ult i64 %.val.val.i.i, %.0.val.val.i.i
  br i1 %20, label %.lr.ph.i.i, label %"_ZSt25__unguarded_linear_insertIPPKN4llvm9symbolize12MarkupFilter4MMapEN9__gnu_cxx5__ops14_Val_comp_iterIZNS2_20endAnyModuleInfoLineEvE3$_0EEEvT_T0_.exit.i", !llvm.loop !106

"_ZSt25__unguarded_linear_insertIPPKN4llvm9symbolize12MarkupFilter4MMapEN9__gnu_cxx5__ops14_Val_comp_iterIZNS2_20endAnyModuleInfoLineEvE3$_0EEEvT_T0_.exit.i": ; preds = %.lr.ph.i.i, %18, %11
  %.sink.i = phi ptr [ %0, %11 ], [ %.020.i, %18 ], [ %.015.i.i, %.lr.ph.i.i ]
  store ptr %.0.val.i, ptr %.sink.i, align 8
  %.0.i = getelementptr inbounds nuw i8, ptr %.020.i, i64 8
  %.not.i = icmp eq ptr %.0.i, %1
  br i1 %.not.i, label %common.ret25, label %.lr.ph.i, !llvm.loop !107

common.ret25:                                     ; preds = %8, %"_ZSt25__unguarded_linear_insertIPPKN4llvm9symbolize12MarkupFilter4MMapEN9__gnu_cxx5__ops14_Val_comp_iterIZNS2_20endAnyModuleInfoLineEvE3$_0EEEvT_T0_.exit.i", %21
  ret void

21:                                               ; preds = %2
  %22 = lshr i64 %6, 1
  %23 = getelementptr inbounds nuw ptr, ptr %0, i64 %22
  tail call fastcc void @"_ZSt21__inplace_stable_sortIPPKN4llvm9symbolize12MarkupFilter4MMapEN9__gnu_cxx5__ops15_Iter_comp_iterIZNS2_20endAnyModuleInfoLineEvE3$_0EEEvT_SC_T0_"(ptr noundef %0, ptr noundef %23)
  tail call fastcc void @"_ZSt21__inplace_stable_sortIPPKN4llvm9symbolize12MarkupFilter4MMapEN9__gnu_cxx5__ops15_Iter_comp_iterIZNS2_20endAnyModuleInfoLineEvE3$_0EEEvT_SC_T0_"(ptr noundef %23, ptr noundef %1)
  %24 = ptrtoint ptr %23 to i64
  %25 = sub i64 %3, %24
  %26 = ashr exact i64 %25, 3
  tail call fastcc void @"_ZSt22__merge_without_bufferIPPKN4llvm9symbolize12MarkupFilter4MMapElN9__gnu_cxx5__ops15_Iter_comp_iterIZNS2_20endAnyModuleInfoLineEvE3$_0EEEvT_SC_SC_T0_SD_T1_"(ptr noundef %0, ptr noundef %23, ptr noundef %1, i64 noundef %22, i64 noundef %26)
  br label %common.ret25
}